; Function Attrs: mustprogress uwtable
define internal noundef zeroext i1 @_ZN4Luau12_GLOBAL__N_18FindNode5visitEPNS_12AstStatBlockE(ptr noundef nonnull align 8 dereferenceable(32) %0, ptr noundef %1) unnamed_addr #4 align 2 {
  %3 = load ptr, ptr %0, align 8, !tbaa !8
  %4 = getelementptr inbounds nuw i8, ptr %3, i64 16
  %5 = load ptr, ptr %4, align 8
  %6 = tail call noundef zeroext i1 %5(ptr noundef nonnull align 8 dereferenceable(32) %0, ptr noundef %1)
  %7 = getelementptr inbounds nuw i8, ptr %1, i64 32
  %8 = load ptr, ptr %7, align 8, !tbaa !83
  %9 = getelementptr inbounds nuw i8, ptr %1, i64 40
  %10 = load i64, ptr %9, align 8, !tbaa !86
  %11 = getelementptr inbounds nuw ptr, ptr %8, i64 %10
  %.not15 = icmp eq i64 %10, 0
  br i1 %.not15, label %._crit_edge, label %.lr.ph

.lr.ph:                                           ; preds = %2
  %12 = getelementptr inbounds nuw i8, ptr %0, i64 8
  %13 = getelementptr inbounds nuw i8, ptr %0, i64 12
  br label %14

14:                                               ; preds = %.lr.ph, %36
  %.016 = phi ptr [ %8, %.lr.ph ], [ %37, %36 ]
  %15 = load ptr, ptr %.016, align 8, !tbaa !87
  %16 = getelementptr inbounds nuw i8, ptr %15, i64 20
  %17 = load i32, ptr %16, align 4, !tbaa !80
  %18 = load i32, ptr %12, align 8, !tbaa !80
  %19 = icmp eq i32 %17, %18
  %20 = getelementptr inbounds nuw i8, ptr %15, i64 24
  %21 = load i32, ptr %20, align 4
  %22 = load i32, ptr %13, align 4
  %23 = icmp ult i32 %21, %22
  %24 = icmp ult i32 %17, %18
  %.0.i = select i1 %19, i1 %23, i1 %24
  br i1 %.0.i, label %36, label %25

25:                                               ; preds = %14
  %26 = getelementptr inbounds nuw i8, ptr %15, i64 12
  %27 = load i32, ptr %26, align 4, !tbaa !80
  %28 = icmp eq i32 %27, %18
  %29 = getelementptr inbounds nuw i8, ptr %15, i64 16
  %30 = load i32, ptr %29, align 4
  %31 = icmp ugt i32 %30, %22
  %32 = icmp ugt i32 %27, %18
  %.0.i13 = select i1 %28, i1 %31, i1 %32
  br i1 %.0.i13, label %._crit_edge, label %33

33:                                               ; preds = %25
  %34 = load ptr, ptr %15, align 8, !tbaa !8
  %35 = load ptr, ptr %34, align 8
  tail call void %35(ptr noundef nonnull align 8 dereferenceable(28) %15, ptr noundef nonnull %0)
  br label %36

36:                                               ; preds = %33, %14
  %37 = getelementptr inbounds nuw i8, ptr %.016, i64 8
  %.not = icmp eq ptr %37, %11
  br i1 %.not, label %._crit_edge, label %14

._crit_edge:                                      ; preds = %36, %25, %2
  ret i1 false
}